
C:\Users\lenovo\OneDrive\Desktop\assignments\day11\Animation_task4\release\Animation.elf:     file format elf32-avr

Sections:
Idx Name          Size      VMA       LMA       File off  Algn
  0 .text         0000010e  00000000  00000000  00000074  2**1
                  CONTENTS, ALLOC, LOAD, READONLY, CODE
  1 .data         00000000  00800060  0000010e  00000182  2**0
                  CONTENTS, ALLOC, LOAD, DATA
  2 .comment      0000002f  00000000  00000000  00000182  2**0
                  CONTENTS, READONLY
  3 .note.gnu.avr.deviceinfo 0000003c  00000000  00000000  000001b4  2**2
                  CONTENTS, READONLY, OCTETS
  4 .debug_info   000004e6  00000000  00000000  000001f0  2**0
                  CONTENTS, READONLY, DEBUGGING, OCTETS
  5 .debug_abbrev 000004a3  00000000  00000000  000006d6  2**0
                  CONTENTS, READONLY, DEBUGGING, OCTETS
  6 .debug_line   0000001d  00000000  00000000  00000b79  2**0
                  CONTENTS, READONLY, DEBUGGING, OCTETS
  7 .debug_str    00000196  00000000  00000000  00000b96  2**0
                  CONTENTS, READONLY, DEBUGGING, OCTETS

Disassembly of section .text:

00000000 <__vectors>:
   0:	0c 94 2a 00 	jmp	0x54	; 0x54 <__ctors_end>
   4:	0c 94 34 00 	jmp	0x68	; 0x68 <__bad_interrupt>
   8:	0c 94 34 00 	jmp	0x68	; 0x68 <__bad_interrupt>
   c:	0c 94 34 00 	jmp	0x68	; 0x68 <__bad_interrupt>
  10:	0c 94 34 00 	jmp	0x68	; 0x68 <__bad_interrupt>
  14:	0c 94 34 00 	jmp	0x68	; 0x68 <__bad_interrupt>
  18:	0c 94 34 00 	jmp	0x68	; 0x68 <__bad_interrupt>
  1c:	0c 94 34 00 	jmp	0x68	; 0x68 <__bad_interrupt>
  20:	0c 94 34 00 	jmp	0x68	; 0x68 <__bad_interrupt>
  24:	0c 94 34 00 	jmp	0x68	; 0x68 <__bad_interrupt>
  28:	0c 94 34 00 	jmp	0x68	; 0x68 <__bad_interrupt>
  2c:	0c 94 34 00 	jmp	0x68	; 0x68 <__bad_interrupt>
  30:	0c 94 34 00 	jmp	0x68	; 0x68 <__bad_interrupt>
  34:	0c 94 34 00 	jmp	0x68	; 0x68 <__bad_interrupt>
  38:	0c 94 34 00 	jmp	0x68	; 0x68 <__bad_interrupt>
  3c:	0c 94 34 00 	jmp	0x68	; 0x68 <__bad_interrupt>
  40:	0c 94 34 00 	jmp	0x68	; 0x68 <__bad_interrupt>
  44:	0c 94 34 00 	jmp	0x68	; 0x68 <__bad_interrupt>
  48:	0c 94 34 00 	jmp	0x68	; 0x68 <__bad_interrupt>
  4c:	0c 94 34 00 	jmp	0x68	; 0x68 <__bad_interrupt>
  50:	0c 94 34 00 	jmp	0x68	; 0x68 <__bad_interrupt>

00000054 <__ctors_end>:
  54:	11 24       	eor	r1, r1
  56:	1f be       	out	0x3f, r1	; 63
  58:	cf e5       	ldi	r28, 0x5F	; 95
  5a:	d8 e0       	ldi	r29, 0x08	; 8
  5c:	de bf       	out	0x3e, r29	; 62
  5e:	cd bf       	out	0x3d, r28	; 61
  60:	0e 94 7e 00 	call	0xfc	; 0xfc <main>
  64:	0c 94 85 00 	jmp	0x10a	; 0x10a <_exit>

00000068 <__bad_interrupt>:
  68:	0c 94 00 00 	jmp	0	; 0x0 <__vectors>

0000006c <LED_Init>:
  6c:	8f ef       	ldi	r24, 0xFF	; 255
  6e:	8a bb       	out	0x1a, r24	; 26
  70:	08 95       	ret

00000072 <LED_AllOn>:
  72:	8f ef       	ldi	r24, 0xFF	; 255
  74:	8b bb       	out	0x1b, r24	; 27
  76:	08 95       	ret

00000078 <LED_AllOff>:
  78:	1b ba       	out	0x1b, r1	; 27
  7a:	08 95       	ret

0000007c <LED_Animation>:
  7c:	8f ef       	ldi	r24, 0xFF	; 255
  7e:	8b bb       	out	0x1b, r24	; 27
  80:	2f ef       	ldi	r18, 0xFF	; 255
  82:	43 ed       	ldi	r20, 0xD3	; 211
  84:	80 e3       	ldi	r24, 0x30	; 48

00000086 <.L1^B1>:
  86:	21 50       	subi	r18, 0x01	; 1
  88:	40 40       	sbci	r20, 0x00	; 0
  8a:	80 40       	sbci	r24, 0x00	; 0
  8c:	e1 f7       	brne	.-8      	; 0x86 <.L1^B1>
  8e:	00 c0       	rjmp	.+0      	; 0x90 <L0^A>

00000090 <L0^A>:
  90:	00 00       	nop
  92:	20 e0       	ldi	r18, 0x00	; 0
  94:	30 e0       	ldi	r19, 0x00	; 0
  96:	61 e0       	ldi	r22, 0x01	; 1

00000098 <.L6>:
  98:	4b b3       	in	r20, 0x1b	; 27
  9a:	86 2f       	mov	r24, r22
  9c:	02 2e       	mov	r0, r18
  9e:	01 c0       	rjmp	.+2      	; 0xa2 <.L2^B1>

000000a0 <.L1^B2>:
  a0:	88 0f       	add	r24, r24

000000a2 <.L2^B1>:
  a2:	0a 94       	dec	r0
  a4:	ea f7       	brpl	.-6      	; 0xa0 <.L1^B2>
  a6:	80 95       	com	r24
  a8:	84 23       	and	r24, r20
  aa:	8b bb       	out	0x1b, r24	; 27
  ac:	9f ef       	ldi	r25, 0xFF	; 255
  ae:	49 e6       	ldi	r20, 0x69	; 105
  b0:	88 e1       	ldi	r24, 0x18	; 24

000000b2 <.L1^B3>:
  b2:	91 50       	subi	r25, 0x01	; 1
  b4:	40 40       	sbci	r20, 0x00	; 0
  b6:	80 40       	sbci	r24, 0x00	; 0
  b8:	e1 f7       	brne	.-8      	; 0xb2 <.L1^B3>
  ba:	00 c0       	rjmp	.+0      	; 0xbc <L0^A>

000000bc <L0^A>:
  bc:	00 00       	nop
  be:	2f 5f       	subi	r18, 0xFF	; 255
  c0:	3f 4f       	sbci	r19, 0xFF	; 255
  c2:	28 30       	cpi	r18, 0x08	; 8
  c4:	31 05       	cpc	r19, r1
  c6:	41 f7       	brne	.-48     	; 0x98 <.L6>
  c8:	08 95       	ret

000000ca <LED_Blink>:
  ca:	85 e0       	ldi	r24, 0x05	; 5
  cc:	9f ef       	ldi	r25, 0xFF	; 255

000000ce <.L9>:
  ce:	9b bb       	out	0x1b, r25	; 27
  d0:	2f ef       	ldi	r18, 0xFF	; 255
  d2:	34 e3       	ldi	r19, 0x34	; 52
  d4:	4c e0       	ldi	r20, 0x0C	; 12

000000d6 <.L1^B4>:
  d6:	21 50       	subi	r18, 0x01	; 1
  d8:	30 40       	sbci	r19, 0x00	; 0
  da:	40 40       	sbci	r20, 0x00	; 0
  dc:	e1 f7       	brne	.-8      	; 0xd6 <.L1^B4>
  de:	00 c0       	rjmp	.+0      	; 0xe0 <L0^A>

000000e0 <L0^A>:
  e0:	00 00       	nop
  e2:	1b ba       	out	0x1b, r1	; 27
  e4:	2f ef       	ldi	r18, 0xFF	; 255
  e6:	34 e3       	ldi	r19, 0x34	; 52
  e8:	4c e0       	ldi	r20, 0x0C	; 12

000000ea <.L1^B5>:
  ea:	21 50       	subi	r18, 0x01	; 1
  ec:	30 40       	sbci	r19, 0x00	; 0
  ee:	40 40       	sbci	r20, 0x00	; 0
  f0:	e1 f7       	brne	.-8      	; 0xea <.L1^B5>
  f2:	00 c0       	rjmp	.+0      	; 0xf4 <L0^A>

000000f4 <L0^A>:
  f4:	00 00       	nop
  f6:	81 50       	subi	r24, 0x01	; 1
  f8:	51 f7       	brne	.-44     	; 0xce <.L9>
  fa:	08 95       	ret

000000fc <main>:
  fc:	0e 94 36 00 	call	0x6c	; 0x6c <LED_Init>

00000100 <.L2>:
 100:	0e 94 3e 00 	call	0x7c	; 0x7c <LED_Animation>
 104:	0e 94 65 00 	call	0xca	; 0xca <LED_Blink>
 108:	fb cf       	rjmp	.-10     	; 0x100 <.L2>

0000010a <_exit>:
 10a:	f8 94       	cli

0000010c <__stop_program>:
 10c:	ff cf       	rjmp	.-2      	; 0x10c <__stop_program>
